target datalayout = "e-m:e-p270:32:32-p271:32:32-p272:64:64-i64:64-i128:128-f80:128-n8:16:32:64-S128"
target triple = "x86_64-unknown-linux-gnu"

%"class.sat::literal" = type { i32 }

; Function Attrs: mustprogress uwtable
define linkonce_odr hidden void @_ZN3smt7context11mk_th_axiomEijPN3sat7literalEjP9parameter(ptr noundef nonnull align 8 dereferenceable(11616) %this, i32 noundef %tid, i32 noundef %num_lits, ptr noundef %lits, i32 noundef %num_params, ptr noundef %params) #5 comdat align 2 {
entry:
  %this.addr = alloca ptr, align 8
  %tid.addr = alloca i32, align 4
  %num_lits.addr = alloca i32, align 4
  %lits.addr = alloca ptr, align 8
  %num_params.addr = alloca i32, align 4
  %params.addr = alloca ptr, align 8
  store ptr %this, ptr %this.addr, align 8
  store i32 %tid, ptr %tid.addr, align 4
  store i32 %num_lits, ptr %num_lits.addr, align 4
  store ptr %lits, ptr %lits.addr, align 8
  store i32 %num_params, ptr %num_params.addr, align 4
  store ptr %params, ptr %params.addr, align 8
  %this1 = load ptr, ptr %this.addr, align 8
  %0 = load i32, ptr %tid.addr, align 4
  %1 = load i32, ptr %num_lits.addr, align 4
  %2 = load ptr, ptr %lits.addr, align 8
  %3 = load i32, ptr %num_params.addr, align 4
  %4 = load ptr, ptr %params.addr, align 8
  call void @_ZN3smt7context12mk_th_clauseEijPN3sat7literalEjP9parameterNS_11clause_kindE(ptr noundef nonnull align 8 dereferenceable(11616) %this1, i32 noundef %0, i32 noundef %1, ptr noundef %2, i32 noundef %3, ptr noundef %4, i32 noundef 1)
  ret void
}

; Function Attrs: mustprogress uwtable
define hidden void @_ZN3smt7context11mk_th_axiomEiN3sat7literalES2_S2_jP9parameter(ptr noundef nonnull align 8 dereferenceable(11616) %this, i32 noundef %tid, i32 %l1.coerce, i32 %l2.coerce, i32 %l3.coerce, i32 noundef %num_params, ptr noundef %params) #5 align 2 {
entry:
  %l1 = alloca %"class.sat::literal", align 4
  %l2 = alloca %"class.sat::literal", align 4
  %l3 = alloca %"class.sat::literal", align 4
  %this.addr = alloca ptr, align 8
  %tid.addr = alloca i32, align 4
  %num_params.addr = alloca i32, align 4
  %params.addr = alloca ptr, align 8
  %ls = alloca [3 x %"class.sat::literal"], align 4
  %coerce.dive = getelementptr inbounds %"class.sat::literal", ptr %l1, i32 0, i32 0
  store i32 %l1.coerce, ptr %coerce.dive, align 4
  %coerce.dive1 = getelementptr inbounds %"class.sat::literal", ptr %l2, i32 0, i32 0
  store i32 %l2.coerce, ptr %coerce.dive1, align 4
  %coerce.dive2 = getelementptr inbounds %"class.sat::literal", ptr %l3, i32 0, i32 0
  store i32 %l3.coerce, ptr %coerce.dive2, align 4
  store ptr %this, ptr %this.addr, align 8
  store i32 %tid, ptr %tid.addr, align 4
  store i32 %num_params, ptr %num_params.addr, align 4
  store ptr %params, ptr %params.addr, align 8
  %this3 = load ptr, ptr %this.addr, align 8
  %arrayinit.begin = getelementptr inbounds [3 x %"class.sat::literal"], ptr %ls, i64 0, i64 0
  call void @llvm.memcpy.p0.p0.i64(ptr align 4 %arrayinit.begin, ptr align 4 %l1, i64 4, i1 false)
  %arrayinit.element = getelementptr inbounds %"class.sat::literal", ptr %arrayinit.begin, i64 1
  call void @llvm.memcpy.p0.p0.i64(ptr align 4 %arrayinit.element, ptr align 4 %l2, i64 4, i1 false)
  %arrayinit.element4 = getelementptr inbounds %"class.sat::literal", ptr %arrayinit.element, i64 1
  call void @llvm.memcpy.p0.p0.i64(ptr align 4 %arrayinit.element4, ptr align 4 %l3, i64 4, i1 false)
  %0 = load i32, ptr %tid.addr, align 4
  %arraydecay = getelementptr inbounds [3 x %"class.sat::literal"], ptr %ls, i64 0, i64 0
  %1 = load i32, ptr %num_params.addr, align 4
  %2 = load ptr, ptr %params.addr, align 8
  call void @_ZN3smt7context11mk_th_axiomEijPN3sat7literalEjP9parameter(ptr noundef nonnull align 8 dereferenceable(11616) %this3, i32 noundef %0, i32 noundef 3, ptr noundef %arraydecay, i32 noundef %1, ptr noundef %2)
  ret void
}